target datalayout = "e-m:e-p270:32:32-p271:32:32-p272:64:64-i64:64-i128:128-f80:128-n8:16:32:64-S128"
target triple = "x86_64-pc-linux-gnu"

%struct._packet_info = type { ptr, ptr, i32, i32, %struct.nstime_t, %struct.nstime_t, %struct.nstime_t, i8, ptr, ptr, ptr, ptr, %struct._address, %struct._address, %struct._address, %struct._address, %struct._address, %struct._address, i32, ptr, i8, [3 x i8], %struct.anon, i32, i32, i32, i32, ptr, i8, ptr, ptr, i16, i16, i32, i32, i16, i32, i32, ptr, ptr, ptr, i8, i8, i16, i16, i16, i32, i16, i16, ptr, ptr, ptr, ptr, ptr, i32, i32 }
%struct.nstime_t = type { i64, i32 }
%struct._address = type { i32, i32, ptr, ptr }
%struct.anon = type { i8, [3 x i8] }

@.str.692 = private unnamed_addr constant [8 x i8] c"Unknown\00", align 1
@ett_pap = internal global i32 0, align 4
@ett_pap_data = internal global i32 0, align 4
@hf_pap_code = internal global i32 0, align 4
@hf_pap_identifier = internal global i32 0, align 4
@hf_pap_length = internal global i32 0, align 4
@hf_pap_data = internal global i32 0, align 4
@hf_pap_peer_id_length = internal global i32 0, align 4
@hf_pap_peer_id = internal global i32 0, align 4
@hf_pap_password_length = internal global i32 0, align 4
@hf_pap_password = internal global i32 0, align 4
@hf_pap_message_length = internal global i32 0, align 4
@hf_pap_message = internal global i32 0, align 4
@hf_pap_stuff = internal global i32 0, align 4
@.str.754 = private unnamed_addr constant [8 x i8] c"PPP PAP\00", align 1
@proto_pap = internal global i32 0, align 4
@.str.1572 = private unnamed_addr constant [31 x i8] c" (Peer-ID='%s', Password='%s')\00", align 1
@.str.1573 = private unnamed_addr constant [16 x i8] c" (Message='%s')\00", align 1

; Function Attrs: null_pointer_is_valid sspstrong uwtable
define internal i32 @dissect_pap(ptr noundef %0, ptr noundef %1, ptr noundef %2, ptr noundef %3) #1 {
  %5 = alloca ptr, align 8
  %6 = alloca ptr, align 8
  %7 = alloca ptr, align 8
  %8 = alloca ptr, align 8
  %9 = alloca ptr, align 8
  %10 = alloca ptr, align 8
  %11 = alloca ptr, align 8
  %12 = alloca ptr, align 8
  %13 = alloca i8, align 1
  %14 = alloca ptr, align 8
  %15 = alloca ptr, align 8
  %16 = alloca ptr, align 8
  %17 = alloca i8, align 1
  %18 = alloca i8, align 1
  %19 = alloca i8, align 1
  %20 = alloca i32, align 4
  store ptr %0, ptr %5, align 8
  store ptr %1, ptr %6, align 8
  store ptr %2, ptr %7, align 8
  store ptr %3, ptr %8, align 8
  call void @llvm.lifetime.start.p0(i64 8, ptr %9) #6
  call void @llvm.lifetime.start.p0(i64 8, ptr %10) #6
  call void @llvm.lifetime.start.p0(i64 8, ptr %11) #6
  call void @llvm.lifetime.start.p0(i64 8, ptr %12) #6
  store ptr null, ptr %12, align 8
  call void @llvm.lifetime.start.p0(i64 1, ptr %13) #6
  call void @llvm.lifetime.start.p0(i64 8, ptr %14) #6
  call void @llvm.lifetime.start.p0(i64 8, ptr %15) #6
  call void @llvm.lifetime.start.p0(i64 8, ptr %16) #6
  call void @llvm.lifetime.start.p0(i64 1, ptr %17) #6
  call void @llvm.lifetime.start.p0(i64 1, ptr %18) #6
  call void @llvm.lifetime.start.p0(i64 1, ptr %19) #6
  call void @llvm.lifetime.start.p0(i64 4, ptr %20) #6
  store i32 0, ptr %20, align 4
  %21 = load ptr, ptr %5, align 8
  %22 = call zeroext i8 @tvb_get_uint8(ptr noundef %21, i32 noundef 0)
  store i8 %22, ptr %13, align 1
  %23 = load ptr, ptr %6, align 8
  %24 = getelementptr inbounds nuw %struct._packet_info, ptr %23, i32 0, i32 1
  %25 = load ptr, ptr %24, align 8
  call void @col_set_str(ptr noundef %25, i32 noundef 35, ptr noundef @.str.754)
  %26 = load ptr, ptr %6, align 8
  %27 = getelementptr inbounds nuw %struct._packet_info, ptr %26, i32 0, i32 1
  %28 = load ptr, ptr %27, align 8
  %29 = load i8, ptr %13, align 1
  %30 = zext i8 %29 to i32
  %31 = call ptr @val_to_str_const(i32 noundef %30, ptr noundef @pap_vals, ptr noundef @.str.692)
  call void @col_set_str(ptr noundef %28, i32 noundef 25, ptr noundef %31)
  %32 = load ptr, ptr %7, align 8
  %33 = load i32, ptr @proto_pap, align 4
  %34 = load ptr, ptr %5, align 8
  %35 = call ptr @proto_tree_add_item(ptr noundef %32, i32 noundef %33, ptr noundef %34, i32 noundef 0, i32 noundef -1, i32 noundef 0)
  store ptr %35, ptr %9, align 8
  %36 = load ptr, ptr %9, align 8
  %37 = load i32, ptr @ett_pap, align 4
  %38 = call ptr @proto_item_add_subtree(ptr noundef %36, i32 noundef %37)
  store ptr %38, ptr %11, align 8
  %39 = load ptr, ptr %11, align 8
  %40 = load i32, ptr @hf_pap_code, align 4
  %41 = load ptr, ptr %5, align 8
  %42 = load i32, ptr %20, align 4
  %43 = call ptr @proto_tree_add_item(ptr noundef %39, i32 noundef %40, ptr noundef %41, i32 noundef %42, i32 noundef 1, i32 noundef 0)
  %44 = load i32, ptr %20, align 4
  %45 = add i32 %44, 1
  store i32 %45, ptr %20, align 4
  %46 = load ptr, ptr %11, align 8
  %47 = load i32, ptr @hf_pap_identifier, align 4
  %48 = load ptr, ptr %5, align 8
  %49 = load i32, ptr %20, align 4
  %50 = call ptr @proto_tree_add_item(ptr noundef %46, i32 noundef %47, ptr noundef %48, i32 noundef %49, i32 noundef 1, i32 noundef 0)
  %51 = load i32, ptr %20, align 4
  %52 = add i32 %51, 1
  store i32 %52, ptr %20, align 4
  %53 = load ptr, ptr %11, align 8
  %54 = load i32, ptr @hf_pap_length, align 4
  %55 = load ptr, ptr %5, align 8
  %56 = load i32, ptr %20, align 4
  %57 = call ptr @proto_tree_add_item(ptr noundef %53, i32 noundef %54, ptr noundef %55, i32 noundef %56, i32 noundef 2, i32 noundef 0)
  %58 = load i32, ptr %20, align 4
  %59 = add i32 %58, 2
  store i32 %59, ptr %20, align 4
  %60 = load ptr, ptr %11, align 8
  %61 = load i32, ptr @hf_pap_data, align 4
  %62 = load ptr, ptr %5, align 8
  %63 = load i32, ptr %20, align 4
  %64 = call ptr @proto_tree_add_item(ptr noundef %60, i32 noundef %61, ptr noundef %62, i32 noundef %63, i32 noundef -1, i32 noundef 0)
  store ptr %64, ptr %10, align 8
  %65 = load ptr, ptr %10, align 8
  %66 = load i32, ptr @ett_pap_data, align 4
  %67 = call ptr @proto_item_add_subtree(ptr noundef %65, i32 noundef %66)
  store ptr %67, ptr %12, align 8
  %68 = load i8, ptr %13, align 1
  %69 = zext i8 %68 to i32
  switch i32 %69, label %160 [
    i32 1, label %70
    i32 2, label %130
    i32 3, label %130
  ]

70:                                               ; preds = %4
  %71 = load ptr, ptr %12, align 8
  %72 = load i32, ptr @hf_pap_peer_id_length, align 4
  %73 = load ptr, ptr %5, align 8
  %74 = load i32, ptr %20, align 4
  %75 = call ptr @proto_tree_add_item(ptr noundef %71, i32 noundef %72, ptr noundef %73, i32 noundef %74, i32 noundef 1, i32 noundef 0)
  %76 = load ptr, ptr %5, align 8
  %77 = load i32, ptr %20, align 4
  %78 = call zeroext i8 @tvb_get_uint8(ptr noundef %76, i32 noundef %77)
  store i8 %78, ptr %17, align 1
  %79 = load i32, ptr %20, align 4
  %80 = add i32 %79, 1
  store i32 %80, ptr %20, align 4
  %81 = load ptr, ptr %12, align 8
  %82 = load i32, ptr @hf_pap_peer_id, align 4
  %83 = load ptr, ptr %5, align 8
  %84 = load i32, ptr %20, align 4
  %85 = load i8, ptr %17, align 1
  %86 = zext i8 %85 to i32
  %87 = call ptr @proto_tree_add_item(ptr noundef %81, i32 noundef %82, ptr noundef %83, i32 noundef %84, i32 noundef %86, i32 noundef 0)
  %88 = load ptr, ptr %6, align 8
  %89 = getelementptr inbounds nuw %struct._packet_info, ptr %88, i32 0, i32 51
  %90 = load ptr, ptr %89, align 8
  %91 = load ptr, ptr %5, align 8
  %92 = load i32, ptr %20, align 4
  %93 = load i8, ptr %17, align 1
  %94 = zext i8 %93 to i32
  %95 = call ptr @tvb_format_text(ptr noundef %90, ptr noundef %91, i32 noundef %92, i32 noundef %94)
  store ptr %95, ptr %14, align 8
  %96 = load i8, ptr %17, align 1
  %97 = zext i8 %96 to i32
  %98 = load i32, ptr %20, align 4
  %99 = add i32 %98, %97
  store i32 %99, ptr %20, align 4
  %100 = load ptr, ptr %12, align 8
  %101 = load i32, ptr @hf_pap_password_length, align 4
  %102 = load ptr, ptr %5, align 8
  %103 = load i32, ptr %20, align 4
  %104 = call ptr @proto_tree_add_item(ptr noundef %100, i32 noundef %101, ptr noundef %102, i32 noundef %103, i32 noundef 1, i32 noundef 0)
  %105 = load ptr, ptr %5, align 8
  %106 = load i32, ptr %20, align 4
  %107 = call zeroext i8 @tvb_get_uint8(ptr noundef %105, i32 noundef %106)
  store i8 %107, ptr %18, align 1
  %108 = load i32, ptr %20, align 4
  %109 = add i32 %108, 1
  store i32 %109, ptr %20, align 4
  %110 = load ptr, ptr %12, align 8
  %111 = load i32, ptr @hf_pap_password, align 4
  %112 = load ptr, ptr %5, align 8
  %113 = load i32, ptr %20, align 4
  %114 = load i8, ptr %18, align 1
  %115 = zext i8 %114 to i32
  %116 = call ptr @proto_tree_add_item(ptr noundef %110, i32 noundef %111, ptr noundef %112, i32 noundef %113, i32 noundef %115, i32 noundef 0)
  %117 = load ptr, ptr %6, align 8
  %118 = getelementptr inbounds nuw %struct._packet_info, ptr %117, i32 0, i32 51
  %119 = load ptr, ptr %118, align 8
  %120 = load ptr, ptr %5, align 8
  %121 = load i32, ptr %20, align 4
  %122 = load i8, ptr %18, align 1
  %123 = zext i8 %122 to i32
  %124 = call ptr @tvb_format_text(ptr noundef %119, ptr noundef %120, i32 noundef %121, i32 noundef %123)
  store ptr %124, ptr %15, align 8
  %125 = load ptr, ptr %6, align 8
  %126 = getelementptr inbounds nuw %struct._packet_info, ptr %125, i32 0, i32 1
  %127 = load ptr, ptr %126, align 8
  %128 = load ptr, ptr %14, align 8
  %129 = load ptr, ptr %15, align 8
  call void (ptr, i32, ptr, ...) @col_append_fstr(ptr noundef %127, i32 noundef 25, ptr noundef @.str.1572, ptr noundef %128, ptr noundef %129)
  br label %166

130:                                              ; preds = %4, %4
  %131 = load ptr, ptr %12, align 8
  %132 = load i32, ptr @hf_pap_message_length, align 4
  %133 = load ptr, ptr %5, align 8
  %134 = load i32, ptr %20, align 4
  %135 = call ptr @proto_tree_add_item(ptr noundef %131, i32 noundef %132, ptr noundef %133, i32 noundef %134, i32 noundef 1, i32 noundef 0)
  %136 = load ptr, ptr %5, align 8
  %137 = load i32, ptr %20, align 4
  %138 = call zeroext i8 @tvb_get_uint8(ptr noundef %136, i32 noundef %137)
  store i8 %138, ptr %19, align 1
  %139 = load i32, ptr %20, align 4
  %140 = add i32 %139, 1
  store i32 %140, ptr %20, align 4
  %141 = load ptr, ptr %12, align 8
  %142 = load i32, ptr @hf_pap_message, align 4
  %143 = load ptr, ptr %5, align 8
  %144 = load i32, ptr %20, align 4
  %145 = load i8, ptr %19, align 1
  %146 = zext i8 %145 to i32
  %147 = call ptr @proto_tree_add_item(ptr noundef %141, i32 noundef %142, ptr noundef %143, i32 noundef %144, i32 noundef %146, i32 noundef 0)
  %148 = load ptr, ptr %6, align 8
  %149 = getelementptr inbounds nuw %struct._packet_info, ptr %148, i32 0, i32 51
  %150 = load ptr, ptr %149, align 8
  %151 = load ptr, ptr %5, align 8
  %152 = load i32, ptr %20, align 4
  %153 = load i8, ptr %19, align 1
  %154 = zext i8 %153 to i32
  %155 = call ptr @tvb_format_text(ptr noundef %150, ptr noundef %151, i32 noundef %152, i32 noundef %154)
  store ptr %155, ptr %16, align 8
  %156 = load ptr, ptr %6, align 8
  %157 = getelementptr inbounds nuw %struct._packet_info, ptr %156, i32 0, i32 1
  %158 = load ptr, ptr %157, align 8
  %159 = load ptr, ptr %16, align 8
  call void (ptr, i32, ptr, ...) @col_append_fstr(ptr noundef %158, i32 noundef 25, ptr noundef @.str.1573, ptr noundef %159)
  br label %166

160:                                              ; preds = %4
  %161 = load ptr, ptr %12, align 8
  %162 = load i32, ptr @hf_pap_stuff, align 4
  %163 = load ptr, ptr %5, align 8
  %164 = load i32, ptr %20, align 4
  %165 = call ptr @proto_tree_add_item(ptr noundef %161, i32 noundef %162, ptr noundef %163, i32 noundef %164, i32 noundef -1, i32 noundef 0)
  br label %166

166:                                              ; preds = %160, %130, %70
  %167 = load ptr, ptr %5, align 8
  %168 = call i32 @tvb_captured_length(ptr noundef %167)
  call void @llvm.lifetime.end.p0(i64 4, ptr %20) #6
  call void @llvm.lifetime.end.p0(i64 1, ptr %19) #6
  call void @llvm.lifetime.end.p0(i64 1, ptr %18) #6
  call void @llvm.lifetime.end.p0(i64 1, ptr %17) #6
  call void @llvm.lifetime.end.p0(i64 8, ptr %16) #6
  call void @llvm.lifetime.end.p0(i64 8, ptr %15) #6
  call void @llvm.lifetime.end.p0(i64 8, ptr %14) #6
  call void @llvm.lifetime.end.p0(i64 1, ptr %13) #6
  call void @llvm.lifetime.end.p0(i64 8, ptr %12) #6
  call void @llvm.lifetime.end.p0(i64 8, ptr %11) #6
  call void @llvm.lifetime.end.p0(i64 8, ptr %10) #6
  call void @llvm.lifetime.end.p0(i64 8, ptr %9) #6
  ret i32 %168
}