; Function Attrs: null_pointer_is_valid sspstrong uwtable
define internal i32 @dissect_pap(ptr noundef %0, ptr noundef readonly captures(none) %1, ptr noundef %2, ptr readnone captures(none) %3) #1 {
  %5 = tail call zeroext i8 @tvb_get_uint8(ptr noundef %0, i32 noundef 0)
  %6 = getelementptr inbounds nuw i8, ptr %1, i64 8
  %7 = load ptr, ptr %6, align 8
  tail call void @col_set_str(ptr noundef %7, i32 noundef 35, ptr noundef nonnull @.str.754)
  %8 = load ptr, ptr %6, align 8
  %9 = zext i8 %5 to i32
  %10 = tail call ptr @val_to_str_const(i32 noundef %9, ptr noundef nonnull @pap_vals, ptr noundef nonnull @.str.692)
  tail call void @col_set_str(ptr noundef %8, i32 noundef 25, ptr noundef %10)
  %11 = load i32, ptr @proto_pap, align 4
  %12 = tail call ptr @proto_tree_add_item(ptr noundef %2, i32 noundef %11, ptr noundef %0, i32 noundef 0, i32 noundef -1, i32 noundef 0)
  %13 = load i32, ptr @ett_pap, align 4
  %14 = tail call ptr @proto_item_add_subtree(ptr noundef %12, i32 noundef %13)
  %15 = load i32, ptr @hf_pap_code, align 4
  %16 = tail call ptr @proto_tree_add_item(ptr noundef %14, i32 noundef %15, ptr noundef %0, i32 noundef 0, i32 noundef 1, i32 noundef 0)
  %17 = load i32, ptr @hf_pap_identifier, align 4
  %18 = tail call ptr @proto_tree_add_item(ptr noundef %14, i32 noundef %17, ptr noundef %0, i32 noundef 1, i32 noundef 1, i32 noundef 0)
  %19 = load i32, ptr @hf_pap_length, align 4
  %20 = tail call ptr @proto_tree_add_item(ptr noundef %14, i32 noundef %19, ptr noundef %0, i32 noundef 2, i32 noundef 2, i32 noundef 0)
  %21 = load i32, ptr @hf_pap_data, align 4
  %22 = tail call ptr @proto_tree_add_item(ptr noundef %14, i32 noundef %21, ptr noundef %0, i32 noundef 4, i32 noundef -1, i32 noundef 0)
  %23 = load i32, ptr @ett_pap_data, align 4
  %24 = tail call ptr @proto_item_add_subtree(ptr noundef %22, i32 noundef %23)
  switch i8 %5, label %57 [
    i8 1, label %25
    i8 2, label %46
    i8 3, label %46
  ]

25:                                               ; preds = %4
  %26 = load i32, ptr @hf_pap_peer_id_length, align 4
  %27 = tail call ptr @proto_tree_add_item(ptr noundef %24, i32 noundef %26, ptr noundef %0, i32 noundef 4, i32 noundef 1, i32 noundef 0)
  %28 = tail call zeroext i8 @tvb_get_uint8(ptr noundef %0, i32 noundef 4)
  %29 = load i32, ptr @hf_pap_peer_id, align 4
  %30 = zext i8 %28 to i32
  %31 = tail call ptr @proto_tree_add_item(ptr noundef %24, i32 noundef %29, ptr noundef %0, i32 noundef 5, i32 noundef %30, i32 noundef 0)
  %32 = getelementptr inbounds nuw i8, ptr %1, i64 408
  %33 = load ptr, ptr %32, align 8
  %34 = tail call ptr @tvb_format_text(ptr noundef %33, ptr noundef %0, i32 noundef 5, i32 noundef %30)
  %35 = add nuw nsw i32 %30, 5
  %36 = load i32, ptr @hf_pap_password_length, align 4
  %37 = tail call ptr @proto_tree_add_item(ptr noundef %24, i32 noundef %36, ptr noundef %0, i32 noundef %35, i32 noundef 1, i32 noundef 0)
  %38 = tail call zeroext i8 @tvb_get_uint8(ptr noundef %0, i32 noundef %35)
  %39 = add nuw nsw i32 %30, 6
  %40 = load i32, ptr @hf_pap_password, align 4
  %41 = zext i8 %38 to i32
  %42 = tail call ptr @proto_tree_add_item(ptr noundef %24, i32 noundef %40, ptr noundef %0, i32 noundef %39, i32 noundef %41, i32 noundef 0)
  %43 = load ptr, ptr %32, align 8
  %44 = tail call ptr @tvb_format_text(ptr noundef %43, ptr noundef %0, i32 noundef %39, i32 noundef %41)
  %45 = load ptr, ptr %6, align 8
  tail call void (ptr, i32, ptr, ...) @col_append_fstr(ptr noundef %45, i32 noundef 25, ptr noundef nonnull @.str.1572, ptr noundef %34, ptr noundef %44)
  br label %60

46:                                               ; preds = %4, %4
  %47 = load i32, ptr @hf_pap_message_length, align 4
  %48 = tail call ptr @proto_tree_add_item(ptr noundef %24, i32 noundef %47, ptr noundef %0, i32 noundef 4, i32 noundef 1, i32 noundef 0)
  %49 = tail call zeroext i8 @tvb_get_uint8(ptr noundef %0, i32 noundef 4)
  %50 = load i32, ptr @hf_pap_message, align 4
  %51 = zext i8 %49 to i32
  %52 = tail call ptr @proto_tree_add_item(ptr noundef %24, i32 noundef %50, ptr noundef %0, i32 noundef 5, i32 noundef %51, i32 noundef 0)
  %53 = getelementptr inbounds nuw i8, ptr %1, i64 408
  %54 = load ptr, ptr %53, align 8
  %55 = tail call ptr @tvb_format_text(ptr noundef %54, ptr noundef %0, i32 noundef 5, i32 noundef %51)
  %56 = load ptr, ptr %6, align 8
  tail call void (ptr, i32, ptr, ...) @col_append_fstr(ptr noundef %56, i32 noundef 25, ptr noundef nonnull @.str.1573, ptr noundef %55)
  br label %60

57:                                               ; preds = %4
  %58 = load i32, ptr @hf_pap_stuff, align 4
  %59 = tail call ptr @proto_tree_add_item(ptr noundef %24, i32 noundef %58, ptr noundef %0, i32 noundef 4, i32 noundef -1, i32 noundef 0)
  br label %60

60:                                               ; preds = %57, %46, %25
  %61 = tail call i32 @tvb_captured_length(ptr noundef %0)
  ret i32 %61
}